
ledc.elf：     文件格式 elf32-littlearm


Disassembly of section .text:

87800000 <_start>:
87800000:	e10f0000 	mrs	r0, CPSR
87800004:	e3c0001f 	bic	r0, r0, #31
87800008:	e3800013 	orr	r0, r0, #19
8780000c:	e129f000 	msr	CPSR_fc, r0
87800010:	e51fd000 	ldr	sp, [pc, #-0]	; 87800018 <_start+0x18>
87800014:	ea00005d 	b	87800190 <__main_from_arm>
87800018:	80200000 	eorhi	r0, r0, r0
8780001c:	00001e41 	andeq	r1, r0, r1, asr #28
87800020:	61656100 	cmnvs	r5, r0, lsl #2
87800024:	01006962 	tsteq	r0, r2, ror #18
87800028:	00000014 	andeq	r0, r0, r4, lsl r0
8780002c:	412d3705 	teqmi	sp, r5, lsl #14
87800030:	070a0600 	streq	r0, [sl, -r0, lsl #12]
87800034:	09010841 	stmdbeq	r1, {r0, r6, fp}
87800038:	00040a02 	andeq	r0, r4, r2, lsl #20

8780003c <clk_enable>:
8780003c:	f44f 4380 	mov.w	r3, #16384	; 0x4000
87800040:	f04f 32ff 	mov.w	r2, #4294967295	; 0xffffffff
87800044:	f2c0 230c 	movt	r3, #524	; 0x20c
87800048:	669a      	str	r2, [r3, #104]	; 0x68
8780004a:	66da      	str	r2, [r3, #108]	; 0x6c
8780004c:	671a      	str	r2, [r3, #112]	; 0x70
8780004e:	675a      	str	r2, [r3, #116]	; 0x74
87800050:	679a      	str	r2, [r3, #120]	; 0x78
87800052:	67da      	str	r2, [r3, #124]	; 0x7c
87800054:	f8c3 2080 	str.w	r2, [r3, #128]	; 0x80
87800058:	4770      	bx	lr
8780005a:	bf00      	nop

8780005c <led_init>:
8780005c:	2144      	movs	r1, #68	; 0x44
8780005e:	f44f 7201 	mov.w	r2, #516	; 0x204
87800062:	f44f 4340 	mov.w	r3, #49152	; 0xc000
87800066:	b430      	push	{r4, r5}
87800068:	f2c0 2309 	movt	r3, #521	; 0x209
8780006c:	2505      	movs	r5, #5
8780006e:	f2c0 220e 	movt	r2, #526	; 0x20e
87800072:	f241 04b0 	movw	r4, #4272	; 0x10b0
87800076:	f2c0 210e 	movt	r1, #526	; 0x20e
8780007a:	2008      	movs	r0, #8
8780007c:	624d      	str	r5, [r1, #36]	; 0x24
8780007e:	f8c2 40f0 	str.w	r4, [r2, #240]	; 0xf0
87800082:	6058      	str	r0, [r3, #4]
87800084:	681a      	ldr	r2, [r3, #0]
87800086:	bc30      	pop	{r4, r5}
87800088:	f022 0208 	bic.w	r2, r2, #8
8780008c:	601a      	str	r2, [r3, #0]
8780008e:	4770      	bx	lr

87800090 <delay_short>:
87800090:	b082      	sub	sp, #8
87800092:	9001      	str	r0, [sp, #4]
87800094:	9b01      	ldr	r3, [sp, #4]
87800096:	1e5a      	subs	r2, r3, #1
87800098:	9201      	str	r2, [sp, #4]
8780009a:	2b00      	cmp	r3, #0
8780009c:	d1fa      	bne.n	87800094 <delay_short+0x4>
8780009e:	b002      	add	sp, #8
878000a0:	4770      	bx	lr
878000a2:	bf00      	nop

878000a4 <delay>:
878000a4:	b082      	sub	sp, #8
878000a6:	9001      	str	r0, [sp, #4]
878000a8:	9b01      	ldr	r3, [sp, #4]
878000aa:	1e5a      	subs	r2, r3, #1
878000ac:	9201      	str	r2, [sp, #4]
878000ae:	b153      	cbz	r3, 878000c6 <delay+0x22>
878000b0:	f240 73ff 	movw	r3, #2047	; 0x7ff
878000b4:	461a      	mov	r2, r3
878000b6:	3b01      	subs	r3, #1
878000b8:	2a00      	cmp	r2, #0
878000ba:	d1fb      	bne.n	878000b4 <delay+0x10>
878000bc:	9b01      	ldr	r3, [sp, #4]
878000be:	1e5a      	subs	r2, r3, #1
878000c0:	9201      	str	r2, [sp, #4]
878000c2:	2b00      	cmp	r3, #0
878000c4:	d1f4      	bne.n	878000b0 <delay+0xc>
878000c6:	b002      	add	sp, #8
878000c8:	4770      	bx	lr
878000ca:	bf00      	nop

878000cc <led_on>:
878000cc:	f44f 4340 	mov.w	r3, #49152	; 0xc000
878000d0:	f2c0 2309 	movt	r3, #521	; 0x209
878000d4:	681a      	ldr	r2, [r3, #0]
878000d6:	f022 0208 	bic.w	r2, r2, #8
878000da:	601a      	str	r2, [r3, #0]
878000dc:	4770      	bx	lr
878000de:	bf00      	nop

878000e0 <led_off>:
878000e0:	f44f 4340 	mov.w	r3, #49152	; 0xc000
878000e4:	f2c0 2309 	movt	r3, #521	; 0x209
878000e8:	681a      	ldr	r2, [r3, #0]
878000ea:	f042 0208 	orr.w	r2, r2, #8
878000ee:	601a      	str	r2, [r3, #0]
878000f0:	4770      	bx	lr
878000f2:	bf00      	nop

878000f4 <main>:
878000f4:	f44f 4380 	mov.w	r3, #16384	; 0x4000
878000f8:	2544      	movs	r5, #68	; 0x44
878000fa:	f44f 7401 	mov.w	r4, #516	; 0x204
878000fe:	f44f 4140 	mov.w	r1, #49152	; 0xc000
87800102:	b580      	push	{r7, lr}
87800104:	f2c0 230c 	movt	r3, #524	; 0x20c
87800108:	f04f 32ff 	mov.w	r2, #4294967295	; 0xffffffff
8780010c:	f2c0 2109 	movt	r1, #521	; 0x209
87800110:	f2c0 250e 	movt	r5, #526	; 0x20e
87800114:	f04f 0e05 	mov.w	lr, #5
87800118:	f2c0 240e 	movt	r4, #526	; 0x20e
8780011c:	f241 07b0 	movw	r7, #4272	; 0x10b0
87800120:	2608      	movs	r6, #8
87800122:	669a      	str	r2, [r3, #104]	; 0x68
87800124:	66da      	str	r2, [r3, #108]	; 0x6c
87800126:	4608      	mov	r0, r1
87800128:	671a      	str	r2, [r3, #112]	; 0x70
8780012a:	675a      	str	r2, [r3, #116]	; 0x74
8780012c:	679a      	str	r2, [r3, #120]	; 0x78
8780012e:	67da      	str	r2, [r3, #124]	; 0x7c
87800130:	f8c3 2080 	str.w	r2, [r3, #128]	; 0x80
87800134:	f8c5 e024 	str.w	lr, [r5, #36]	; 0x24
87800138:	f8c4 70f0 	str.w	r7, [r4, #240]	; 0xf0
8780013c:	604e      	str	r6, [r1, #4]
8780013e:	680b      	ldr	r3, [r1, #0]
87800140:	f023 0308 	bic.w	r3, r3, #8
87800144:	600b      	str	r3, [r1, #0]
87800146:	6803      	ldr	r3, [r0, #0]
87800148:	f44f 71fa 	mov.w	r1, #500	; 0x1f4
8780014c:	f023 0308 	bic.w	r3, r3, #8
87800150:	6003      	str	r3, [r0, #0]
87800152:	460b      	mov	r3, r1
87800154:	3901      	subs	r1, #1
87800156:	b14b      	cbz	r3, 8780016c <main+0x78>
87800158:	f240 73ff 	movw	r3, #2047	; 0x7ff
8780015c:	461a      	mov	r2, r3
8780015e:	3b01      	subs	r3, #1
87800160:	2a00      	cmp	r2, #0
87800162:	d1fb      	bne.n	8780015c <main+0x68>
87800164:	460b      	mov	r3, r1
87800166:	3901      	subs	r1, #1
87800168:	2b00      	cmp	r3, #0
8780016a:	d1f5      	bne.n	87800158 <main+0x64>
8780016c:	6803      	ldr	r3, [r0, #0]
8780016e:	f44f 71fa 	mov.w	r1, #500	; 0x1f4
87800172:	f043 0308 	orr.w	r3, r3, #8
87800176:	6003      	str	r3, [r0, #0]
87800178:	460b      	mov	r3, r1
8780017a:	3901      	subs	r1, #1
8780017c:	2b00      	cmp	r3, #0
8780017e:	d0e2      	beq.n	87800146 <main+0x52>
87800180:	f240 73ff 	movw	r3, #2047	; 0x7ff
87800184:	461a      	mov	r2, r3
87800186:	3b01      	subs	r3, #1
87800188:	2a00      	cmp	r2, #0
8780018a:	d1fb      	bne.n	87800184 <main+0x90>
8780018c:	e7f4      	b.n	87800178 <main+0x84>
8780018e:	bf00      	nop

87800190 <__main_from_arm>:
87800190:	e51ff004 	ldr	pc, [pc, #-4]	; 87800194 <__main_from_arm+0x4>
87800194:	878000f5 			; <UNDEFINED> instruction: 0x878000f5
87800198:	3a434347 	bcc	888d0ebc <__bss_end+0x10d0ccb>
8780019c:	694c2820 	stmdbvs	ip, {r5, fp, sp}^
878001a0:	6f72616e 	svcvs	0x0072616e
878001a4:	43434720 	movtmi	r4, #14112	; 0x3720
878001a8:	392e3420 	stmdbcc	lr!, {r5, sl, ip, sp}
878001ac:	3130322d 	teqcc	r0, sp, lsr #4
878001b0:	31302e37 	teqcc	r0, r7, lsr lr
878001b4:	2e342029 	cdpcs	0, 3, cr2, cr4, cr9, {1}
878001b8:	00342e39 	eorseq	r2, r4, r9, lsr lr
878001bc:	00003441 	andeq	r3, r0, r1, asr #8
878001c0:	61656100 	cmnvs	r5, r0, lsl #2
878001c4:	01006962 	tsteq	r0, r2, ror #18
878001c8:	0000002a 	andeq	r0, r0, sl, lsr #32
878001cc:	412d3705 	teqmi	sp, r5, lsl #14
878001d0:	070a0600 	streq	r0, [sl, -r0, lsl #12]
878001d4:	09010841 	stmdbeq	r1, {r0, r6, fp}
878001d8:	12040a02 	andne	r0, r4, #8192	; 0x2000
878001dc:	15011404 	strne	r1, [r1, #-1028]	; 0x404
878001e0:	18031701 	stmdane	r3, {r0, r8, r9, sl, ip}
878001e4:	1a011901 	bne	878465f0 <__bss_end+0x463ff>
878001e8:	1c031b02 	stcne	11, cr1, [r3], {2}
878001ec:	22021e01 	andcs	r1, r2, #1, 28
878001f0:	地址 0x00000000878001f0 越界。

